; Function Attrs: mustprogress nofree norecurse nosync nounwind willreturn memory(read, inaccessiblemem: none) uwtable
define hidden noundef i32 @_ZN7datalog19get_bound_arg_countEP3appRK8uint_set(ptr nocapture noundef readonly %lit, ptr nocapture noundef nonnull readonly align 8 dereferenceable(8) %bound_vars) local_unnamed_addr #5 {
entry:
  %m_num_args.i = getelementptr inbounds i8, ptr %lit, i64 24
  %0 = load i32, ptr %m_num_args.i, align 8
  %cmp7.not = icmp eq i32 %0, 0
  br i1 %cmp7.not, label %for.end, label %for.body.lr.ph

for.body.lr.ph:                                   ; preds = %entry
  %m_args.i = getelementptr inbounds i8, ptr %lit, i64 32
  %1 = load ptr, ptr %bound_vars, align 8
  %.fr = freeze ptr %1
  %cmp.i.i = icmp eq ptr %.fr, null
  %arrayidx.i.i = getelementptr inbounds i8, ptr %.fr, i64 -4
  %wide.trip.count15 = zext i32 %0 to i64
  br i1 %cmp.i.i, label %for.body.us, label %for.body

for.body.us:                                      ; preds = %for.body.lr.ph, %for.body.us
  %indvars.iv12 = phi i64 [ %indvars.iv.next13, %for.body.us ], [ 0, %for.body.lr.ph ]
  %res.09.us = phi i32 [ %res.1.us, %for.body.us ], [ 0, %for.body.lr.ph ]
  %arrayidx.i.us = getelementptr inbounds [0 x ptr], ptr %m_args.i, i64 0, i64 %indvars.iv12
  %2 = load ptr, ptr %arrayidx.i.us, align 8
  %m_kind.i.i.us = getelementptr inbounds i8, ptr %2, i64 4
  %bf.load.i.i.us = load i32, ptr %m_kind.i.i.us, align 4
  %bf.clear.i.i.us = and i32 %bf.load.i.i.us, 65535
  %cmp.i.us = icmp ne i32 %bf.clear.i.i.us, 1
  %inc.us = zext i1 %cmp.i.us to i32
  %res.1.us = add i32 %res.09.us, %inc.us
  %indvars.iv.next13 = add nuw nsw i64 %indvars.iv12, 1
  %exitcond16.not = icmp eq i64 %indvars.iv.next13, %wide.trip.count15
  br i1 %exitcond16.not, label %for.end, label %for.body.us, !llvm.loop !13

for.body:                                         ; preds = %for.body.lr.ph, %for.inc
  %indvars.iv = phi i64 [ %indvars.iv.next, %for.inc ], [ 0, %for.body.lr.ph ]
  %res.09 = phi i32 [ %res.1, %for.inc ], [ 0, %for.body.lr.ph ]
  %arrayidx.i = getelementptr inbounds [0 x ptr], ptr %m_args.i, i64 0, i64 %indvars.iv
  %3 = load ptr, ptr %arrayidx.i, align 8
  %m_kind.i.i = getelementptr inbounds i8, ptr %3, i64 4
  %bf.load.i.i = load i32, ptr %m_kind.i.i, align 4
  %bf.clear.i.i = and i32 %bf.load.i.i, 65535
  %cmp.i = icmp eq i32 %bf.clear.i.i, 1
  br i1 %cmp.i, label %lor.lhs.false, label %if.then

lor.lhs.false:                                    ; preds = %for.body
  %m_idx.i = getelementptr inbounds i8, ptr %3, i64 16
  %4 = load i32, ptr %m_idx.i, align 8
  %shr.i = lshr i32 %4, 5
  %5 = load i32, ptr %arrayidx.i.i, align 4
  %cmp.i6 = icmp ult i32 %shr.i, %5
  br i1 %cmp.i6, label %_ZNK8uint_set8containsEj.exit, label %for.inc

_ZNK8uint_set8containsEj.exit:                    ; preds = %lor.lhs.false
  %idxprom.i.i = zext nneg i32 %shr.i to i64
  %arrayidx.i3.i = getelementptr inbounds i32, ptr %.fr, i64 %idxprom.i.i
  %6 = load i32, ptr %arrayidx.i3.i, align 4
  %and.i = and i32 %4, 31
  %shl.i = shl nuw i32 1, %and.i
  %and3.i = and i32 %6, %shl.i
  %cmp4.i.not = icmp eq i32 %and3.i, 0
  br i1 %cmp4.i.not, label %for.inc, label %if.then

if.then:                                          ; preds = %_ZNK8uint_set8containsEj.exit, %for.body
  %inc = add i32 %res.09, 1
  br label %for.inc

for.inc:                                          ; preds = %lor.lhs.false, %_ZNK8uint_set8containsEj.exit, %if.then
  %res.1 = phi i32 [ %inc, %if.then ], [ %res.09, %_ZNK8uint_set8containsEj.exit ], [ %res.09, %lor.lhs.false ]
  %indvars.iv.next = add nuw nsw i64 %indvars.iv, 1
  %exitcond.not = icmp eq i64 %indvars.iv.next, %wide.trip.count15
  br i1 %exitcond.not, label %for.end, label %for.body, !llvm.loop !13

for.end:                                          ; preds = %for.inc, %for.body.us, %entry
  %res.0.lcssa = phi i32 [ 0, %entry ], [ %res.1.us, %for.body.us ], [ %res.1, %for.inc ]
  ret i32 %res.0.lcssa
}